; Function Attrs: mustprogress noreturn uwtable
define hidden void @_ZN4cvc58internal6theory2ff7noCoCoAEv() local_unnamed_addr #3 personality ptr @__gxx_personality_v0 {
  %1 = tail call ptr @__cxa_allocate_exception(i64 40) #24
  invoke void @_ZN4cvc58internal14LogicExceptionC2EPKc(ptr noundef nonnull align 8 dereferenceable(40) %1, ptr noundef nonnull @.str)
          to label %2 unwind label %3

2:                                                ; preds = %0
  tail call void @__cxa_throw(ptr nonnull %1, ptr nonnull @_ZTIN4cvc58internal14LogicExceptionE, ptr nonnull @_ZN4cvc58internal9ExceptionD2Ev) #25
  unreachable

3:                                                ; preds = %0
  %4 = landingpad { ptr, i32 }
          cleanup
  tail call void @__cxa_free_exception(ptr nonnull %1) #24
  resume { ptr, i32 } %4
}